target datalayout = "e-m:e-p270:32:32-p271:32:32-p272:64:64-i64:64-i128:128-f80:128-n8:16:32:64-S128"
target triple = "x86_64-pc-linux-gnu"

@.str.1 = private unnamed_addr constant [101 x i8] c"generated/home/dtcxzyw/WorkSpace/Projects/compilers/llvm-opt-benchmark/bench/hdf5/hdf5/src/H5Pfcpl.c\00", align 1
@H5E_BADVALUE_g = external global i64, align 8
@H5E_PLIST_g = external global i64, align 8
@.str.67 = private unnamed_addr constant [32 x i8] c"unsigned value can't be decoded\00", align 1
@__func__.H5P__fcrt_shmsg_index_types_dec = private unnamed_addr constant [32 x i8] c"H5P__fcrt_shmsg_index_types_dec\00", align 1

; Function Attrs: nounwind uwtable
define internal i32 @H5P__fcrt_shmsg_index_types_dec(ptr noundef %0, ptr noundef %1) #0 {
  %3 = alloca ptr, align 8
  %4 = alloca ptr, align 8
  %5 = alloca ptr, align 8
  %6 = alloca ptr, align 8
  %7 = alloca i32, align 4
  %8 = alloca i32, align 4
  %9 = alloca i32, align 4
  %10 = alloca i8, align 1
  store ptr %0, ptr %3, align 8
  store ptr %1, ptr %4, align 8
  %11 = load ptr, ptr %4, align 8
  store ptr %11, ptr %5, align 8
  %12 = load ptr, ptr %3, align 8
  store ptr %12, ptr %6, align 8
  store i32 0, ptr %9, align 4
  store i8 0, ptr %10, align 1
  %13 = load ptr, ptr %6, align 8
  %14 = load ptr, ptr %13, align 8
  %15 = getelementptr inbounds i8, ptr %14, i32 1
  store ptr %15, ptr %13, align 8
  %16 = load i8, ptr %14, align 1
  %17 = zext i8 %16 to i32
  store i32 %17, ptr %7, align 4
  %18 = load i32, ptr %7, align 4
  %19 = zext i32 %18 to i64
  %20 = icmp ne i64 %19, 4
  br i1 %20, label %21, label %36

21:                                               ; preds = %2
  br label %22

22:                                               ; preds = %21
  br label %23

23:                                               ; preds = %22
  br label %24

24:                                               ; preds = %23
  %25 = load i64, ptr @H5E_PLIST_g, align 8
  %26 = load i64, ptr @H5E_BADVALUE_g, align 8
  %27 = call i32 (ptr, ptr, i32, i64, i64, ptr, ...) @H5E_printf_stack(ptr noundef @.str.1, ptr noundef @__func__.H5P__fcrt_shmsg_index_types_dec, i32 noundef 983, i64 noundef %25, i64 noundef %26, ptr noundef @.str.67)
  br label %28

28:                                               ; preds = %24
  store i8 1, ptr %10, align 1
  %29 = load i8, ptr %10, align 1
  %30 = trunc i8 %29 to i1
  %31 = zext i1 %30 to i8
  store i8 %31, ptr %10, align 1
  br label %32

32:                                               ; preds = %28
  br label %33

33:                                               ; preds = %32
  store i32 -1, ptr %9, align 4
  br label %106

34:                                               ; No predecessors!
  br label %35

35:                                               ; preds = %34
  br label %36

36:                                               ; preds = %35, %2
  store i32 0, ptr %8, align 4
  br label %37

37:                                               ; preds = %102, %36
  %38 = load i32, ptr %8, align 4
  %39 = icmp ult i32 %38, 8
  br i1 %39, label %40, label %105

40:                                               ; preds = %37
  br label %41

41:                                               ; preds = %40
  br label %42

42:                                               ; preds = %41
  %43 = load ptr, ptr %6, align 8
  %44 = load ptr, ptr %43, align 8
  %45 = load i8, ptr %44, align 1
  %46 = zext i8 %45 to i32
  %47 = and i32 %46, 255
  %48 = load ptr, ptr %5, align 8
  %49 = load i32, ptr %8, align 4
  %50 = zext i32 %49 to i64
  %51 = getelementptr inbounds i32, ptr %48, i64 %50
  store i32 %47, ptr %51, align 4
  %52 = load ptr, ptr %6, align 8
  %53 = load ptr, ptr %52, align 8
  %54 = getelementptr inbounds i8, ptr %53, i32 1
  store ptr %54, ptr %52, align 8
  %55 = load ptr, ptr %6, align 8
  %56 = load ptr, ptr %55, align 8
  %57 = load i8, ptr %56, align 1
  %58 = zext i8 %57 to i32
  %59 = and i32 %58, 255
  %60 = shl i32 %59, 8
  %61 = load ptr, ptr %5, align 8
  %62 = load i32, ptr %8, align 4
  %63 = zext i32 %62 to i64
  %64 = getelementptr inbounds i32, ptr %61, i64 %63
  %65 = load i32, ptr %64, align 4
  %66 = or i32 %65, %60
  store i32 %66, ptr %64, align 4
  %67 = load ptr, ptr %6, align 8
  %68 = load ptr, ptr %67, align 8
  %69 = getelementptr inbounds i8, ptr %68, i32 1
  store ptr %69, ptr %67, align 8
  %70 = load ptr, ptr %6, align 8
  %71 = load ptr, ptr %70, align 8
  %72 = load i8, ptr %71, align 1
  %73 = zext i8 %72 to i32
  %74 = and i32 %73, 255
  %75 = shl i32 %74, 16
  %76 = load ptr, ptr %5, align 8
  %77 = load i32, ptr %8, align 4
  %78 = zext i32 %77 to i64
  %79 = getelementptr inbounds i32, ptr %76, i64 %78
  %80 = load i32, ptr %79, align 4
  %81 = or i32 %80, %75
  store i32 %81, ptr %79, align 4
  %82 = load ptr, ptr %6, align 8
  %83 = load ptr, ptr %82, align 8
  %84 = getelementptr inbounds i8, ptr %83, i32 1
  store ptr %84, ptr %82, align 8
  %85 = load ptr, ptr %6, align 8
  %86 = load ptr, ptr %85, align 8
  %87 = load i8, ptr %86, align 1
  %88 = zext i8 %87 to i32
  %89 = and i32 %88, 255
  %90 = shl i32 %89, 24
  %91 = load ptr, ptr %5, align 8
  %92 = load i32, ptr %8, align 4
  %93 = zext i32 %92 to i64
  %94 = getelementptr inbounds i32, ptr %91, i64 %93
  %95 = load i32, ptr %94, align 4
  %96 = or i32 %95, %90
  store i32 %96, ptr %94, align 4
  %97 = load ptr, ptr %6, align 8
  %98 = load ptr, ptr %97, align 8
  %99 = getelementptr inbounds i8, ptr %98, i32 1
  store ptr %99, ptr %97, align 8
  br label %100

100:                                              ; preds = %42
  br label %101

101:                                              ; preds = %100
  br label %102

102:                                              ; preds = %101
  %103 = load i32, ptr %8, align 4
  %104 = add i32 %103, 1
  store i32 %104, ptr %8, align 4
  br label %37

105:                                              ; preds = %37
  br label %106

106:                                              ; preds = %105, %33
  %107 = load i32, ptr %9, align 4
  ret i32 %107
}